
getdomain:     file format elf64-x86-64


Disassembly of section .init:

0000000000001000 <_init>:
    1000:	48 83 ec 08          	sub    $0x8,%rsp
    1004:	48 8b 05 dd 2f 00 00 	mov    0x2fdd(%rip),%rax        # 3fe8 <__gmon_start__>
    100b:	48 85 c0             	test   %rax,%rax
    100e:	74 02                	je     1012 <_init+0x12>
    1010:	ff d0                	callq  *%rax
    1012:	48 83 c4 08          	add    $0x8,%rsp
    1016:	c3                   	retq   

Disassembly of section .plt:

0000000000001020 <.plt>:
    1020:	ff 35 e2 2f 00 00    	pushq  0x2fe2(%rip)        # 4008 <_GLOBAL_OFFSET_TABLE_+0x8>
    1026:	ff 25 e4 2f 00 00    	jmpq   *0x2fe4(%rip)        # 4010 <_GLOBAL_OFFSET_TABLE_+0x10>
    102c:	0f 1f 40 00          	nopl   0x0(%rax)

0000000000001030 <strcpy@plt>:
    1030:	ff 25 e2 2f 00 00    	jmpq   *0x2fe2(%rip)        # 4018 <strcpy@GLIBC_2.2.5>
    1036:	68 00 00 00 00       	pushq  $0x0
    103b:	e9 e0 ff ff ff       	jmpq   1020 <.plt>

0000000000001040 <puts@plt>:
    1040:	ff 25 da 2f 00 00    	jmpq   *0x2fda(%rip)        # 4020 <puts@GLIBC_2.2.5>
    1046:	68 01 00 00 00       	pushq  $0x1
    104b:	e9 d0 ff ff ff       	jmpq   1020 <.plt>

0000000000001050 <printf@plt>:
    1050:	ff 25 d2 2f 00 00    	jmpq   *0x2fd2(%rip)        # 4028 <printf@GLIBC_2.2.5>
    1056:	68 02 00 00 00       	pushq  $0x2
    105b:	e9 c0 ff ff ff       	jmpq   1020 <.plt>

0000000000001060 <strtok@plt>:
    1060:	ff 25 ca 2f 00 00    	jmpq   *0x2fca(%rip)        # 4030 <strtok@GLIBC_2.2.5>
    1066:	68 03 00 00 00       	pushq  $0x3
    106b:	e9 b0 ff ff ff       	jmpq   1020 <.plt>

0000000000001070 <strdup@plt>:
    1070:	ff 25 c2 2f 00 00    	jmpq   *0x2fc2(%rip)        # 4038 <strdup@GLIBC_2.2.5>
    1076:	68 04 00 00 00       	pushq  $0x4
    107b:	e9 a0 ff ff ff       	jmpq   1020 <.plt>

Disassembly of section .plt.got:

0000000000001080 <__cxa_finalize@plt>:
    1080:	ff 25 72 2f 00 00    	jmpq   *0x2f72(%rip)        # 3ff8 <__cxa_finalize@GLIBC_2.2.5>
    1086:	66 90                	xchg   %ax,%ax

Disassembly of section .text:

0000000000001090 <_start>:
    1090:	31 ed                	xor    %ebp,%ebp
    1092:	49 89 d1             	mov    %rdx,%r9
    1095:	5e                   	pop    %rsi
    1096:	48 89 e2             	mov    %rsp,%rdx
    1099:	48 83 e4 f0          	and    $0xfffffffffffffff0,%rsp
    109d:	50                   	push   %rax
    109e:	54                   	push   %rsp
    109f:	4c 8d 05 4a 02 00 00 	lea    0x24a(%rip),%r8        # 12f0 <__libc_csu_fini>
    10a6:	48 8d 0d e3 01 00 00 	lea    0x1e3(%rip),%rcx        # 1290 <__libc_csu_init>
    10ad:	48 8d 3d 7a 01 00 00 	lea    0x17a(%rip),%rdi        # 122e <main>
    10b4:	ff 15 26 2f 00 00    	callq  *0x2f26(%rip)        # 3fe0 <__libc_start_main@GLIBC_2.2.5>
    10ba:	f4                   	hlt    
    10bb:	0f 1f 44 00 00       	nopl   0x0(%rax,%rax,1)

00000000000010c0 <deregister_tm_clones>:
    10c0:	48 8d 3d 89 2f 00 00 	lea    0x2f89(%rip),%rdi        # 4050 <__TMC_END__>
    10c7:	48 8d 05 82 2f 00 00 	lea    0x2f82(%rip),%rax        # 4050 <__TMC_END__>
    10ce:	48 39 f8             	cmp    %rdi,%rax
    10d1:	74 15                	je     10e8 <deregister_tm_clones+0x28>
    10d3:	48 8b 05 fe 2e 00 00 	mov    0x2efe(%rip),%rax        # 3fd8 <_ITM_deregisterTMCloneTable>
    10da:	48 85 c0             	test   %rax,%rax
    10dd:	74 09                	je     10e8 <deregister_tm_clones+0x28>
    10df:	ff e0                	jmpq   *%rax
    10e1:	0f 1f 80 00 00 00 00 	nopl   0x0(%rax)
    10e8:	c3                   	retq   
    10e9:	0f 1f 80 00 00 00 00 	nopl   0x0(%rax)

00000000000010f0 <register_tm_clones>:
    10f0:	48 8d 3d 59 2f 00 00 	lea    0x2f59(%rip),%rdi        # 4050 <__TMC_END__>
    10f7:	48 8d 35 52 2f 00 00 	lea    0x2f52(%rip),%rsi        # 4050 <__TMC_END__>
    10fe:	48 29 fe             	sub    %rdi,%rsi
    1101:	48 c1 fe 03          	sar    $0x3,%rsi
    1105:	48 89 f0             	mov    %rsi,%rax
    1108:	48 c1 e8 3f          	shr    $0x3f,%rax
    110c:	48 01 c6             	add    %rax,%rsi
    110f:	48 d1 fe             	sar    %rsi
    1112:	74 14                	je     1128 <register_tm_clones+0x38>
    1114:	48 8b 05 d5 2e 00 00 	mov    0x2ed5(%rip),%rax        # 3ff0 <_ITM_registerTMCloneTable>
    111b:	48 85 c0             	test   %rax,%rax
    111e:	74 08                	je     1128 <register_tm_clones+0x38>
    1120:	ff e0                	jmpq   *%rax
    1122:	66 0f 1f 44 00 00    	nopw   0x0(%rax,%rax,1)
    1128:	c3                   	retq   
    1129:	0f 1f 80 00 00 00 00 	nopl   0x0(%rax)

0000000000001130 <__do_global_dtors_aux>:
    1130:	80 3d 19 2f 00 00 00 	cmpb   $0x0,0x2f19(%rip)        # 4050 <__TMC_END__>
    1137:	75 2f                	jne    1168 <__do_global_dtors_aux+0x38>
    1139:	55                   	push   %rbp
    113a:	48 83 3d b6 2e 00 00 	cmpq   $0x0,0x2eb6(%rip)        # 3ff8 <__cxa_finalize@GLIBC_2.2.5>
    1141:	00 
    1142:	48 89 e5             	mov    %rsp,%rbp
    1145:	74 0c                	je     1153 <__do_global_dtors_aux+0x23>
    1147:	48 8b 3d fa 2e 00 00 	mov    0x2efa(%rip),%rdi        # 4048 <__dso_handle>
    114e:	e8 2d ff ff ff       	callq  1080 <__cxa_finalize@plt>
    1153:	e8 68 ff ff ff       	callq  10c0 <deregister_tm_clones>
    1158:	c6 05 f1 2e 00 00 01 	movb   $0x1,0x2ef1(%rip)        # 4050 <__TMC_END__>
    115f:	5d                   	pop    %rbp
    1160:	c3                   	retq   
    1161:	0f 1f 80 00 00 00 00 	nopl   0x0(%rax)
    1168:	c3                   	retq   
    1169:	0f 1f 80 00 00 00 00 	nopl   0x0(%rax)

0000000000001170 <frame_dummy>:
    1170:	e9 7b ff ff ff       	jmpq   10f0 <register_tm_clones>

0000000000001175 <print_domain>:
    1175:	55                   	push   %rbp
    1176:	48 89 e5             	mov    %rsp,%rbp
    1179:	48 83 ec 10          	sub    $0x10,%rsp
    117d:	48 89 7d f8          	mov    %rdi,-0x8(%rbp)
    1181:	48 8b 45 f8          	mov    -0x8(%rbp),%rax
    1185:	48 89 c6             	mov    %rax,%rsi
    1188:	48 8d 3d 75 0e 00 00 	lea    0xe75(%rip),%rdi        # 2004 <_IO_stdin_used+0x4>
    118f:	b8 00 00 00 00       	mov    $0x0,%eax
    1194:	e8 b7 fe ff ff       	callq  1050 <printf@plt>
    1199:	90                   	nop
    119a:	c9                   	leaveq 
    119b:	c3                   	retq   

000000000000119c <parse>:
    119c:	55                   	push   %rbp
    119d:	48 89 e5             	mov    %rsp,%rbp
    11a0:	48 81 ec 20 04 00 00 	sub    $0x420,%rsp
    11a7:	48 89 bd e8 fb ff ff 	mov    %rdi,-0x418(%rbp)
    11ae:	48 83 bd e8 fb ff ff 	cmpq   $0x0,-0x418(%rbp)
    11b5:	00 
    11b6:	74 72                	je     122a <parse+0x8e>
    11b8:	48 8b 85 e8 fb ff ff 	mov    -0x418(%rbp),%rax
    11bf:	48 89 45 f8          	mov    %rax,-0x8(%rbp)
    11c3:	48 8b 45 f8          	mov    -0x8(%rbp),%rax
    11c7:	48 8d 35 44 0e 00 00 	lea    0xe44(%rip),%rsi        # 2012 <_IO_stdin_used+0x12>
    11ce:	48 89 c7             	mov    %rax,%rdi
    11d1:	e8 8a fe ff ff       	callq  1060 <strtok@plt>
    11d6:	48 89 45 f0          	mov    %rax,-0x10(%rbp)
    11da:	48 83 7d f0 00       	cmpq   $0x0,-0x10(%rbp)
    11df:	74 3f                	je     1220 <parse+0x84>
    11e1:	48 83 7d f8 00       	cmpq   $0x0,-0x8(%rbp)
    11e6:	75 2e                	jne    1216 <parse+0x7a>
    11e8:	48 8b 55 f0          	mov    -0x10(%rbp),%rdx
    11ec:	48 8d 85 f0 fb ff ff 	lea    -0x410(%rbp),%rax
    11f3:	48 89 d6             	mov    %rdx,%rsi
    11f6:	48 89 c7             	mov    %rax,%rdi
    11f9:	e8 32 fe ff ff       	callq  1030 <strcpy@plt>
    11fe:	48 8d 85 f0 fb ff ff 	lea    -0x410(%rbp),%rax
    1205:	48 89 c7             	mov    %rax,%rdi
    1208:	e8 68 ff ff ff       	callq  1175 <print_domain>
    120d:	48 8d 05 00 0e 00 00 	lea    0xe00(%rip),%rax        # 2014 <_IO_stdin_used+0x14>
    1214:	eb 16                	jmp    122c <parse+0x90>
    1216:	48 c7 45 f8 00 00 00 	movq   $0x0,-0x8(%rbp)
    121d:	00 
    121e:	eb a3                	jmp    11c3 <parse+0x27>
    1220:	90                   	nop
    1221:	48 8d 05 f0 0d 00 00 	lea    0xdf0(%rip),%rax        # 2018 <_IO_stdin_used+0x18>
    1228:	eb 02                	jmp    122c <parse+0x90>
    122a:	90                   	nop
    122b:	90                   	nop
    122c:	c9                   	leaveq 
    122d:	c3                   	retq   

000000000000122e <main>:
    122e:	55                   	push   %rbp
    122f:	48 89 e5             	mov    %rsp,%rbp
    1232:	48 83 ec 10          	sub    $0x10,%rsp
    1236:	89 7d fc             	mov    %edi,-0x4(%rbp)
    1239:	48 89 75 f0          	mov    %rsi,-0x10(%rbp)
    123d:	83 7d fc 01          	cmpl   $0x1,-0x4(%rbp)
    1241:	7f 13                	jg     1256 <main+0x28>
    1243:	48 8d 3d d1 0d 00 00 	lea    0xdd1(%rip),%rdi        # 201b <_IO_stdin_used+0x1b>
    124a:	e8 f1 fd ff ff       	callq  1040 <puts@plt>
    124f:	b8 01 00 00 00       	mov    $0x1,%eax
    1254:	eb 34                	jmp    128a <main+0x5c>
    1256:	48 8b 45 f0          	mov    -0x10(%rbp),%rax
    125a:	48 83 c0 08          	add    $0x8,%rax
    125e:	48 8b 00             	mov    (%rax),%rax
    1261:	48 89 c7             	mov    %rax,%rdi
    1264:	e8 07 fe ff ff       	callq  1070 <strdup@plt>
    1269:	48 89 c7             	mov    %rax,%rdi
    126c:	e8 2b ff ff ff       	callq  119c <parse>
    1271:	48 89 c6             	mov    %rax,%rsi
    1274:	48 8d 3d bc 0d 00 00 	lea    0xdbc(%rip),%rdi        # 2037 <_IO_stdin_used+0x37>
    127b:	b8 00 00 00 00       	mov    $0x0,%eax
    1280:	e8 cb fd ff ff       	callq  1050 <printf@plt>
    1285:	b8 00 00 00 00       	mov    $0x0,%eax
    128a:	c9                   	leaveq 
    128b:	c3                   	retq   
    128c:	0f 1f 40 00          	nopl   0x0(%rax)

0000000000001290 <__libc_csu_init>:
    1290:	41 57                	push   %r15
    1292:	49 89 d7             	mov    %rdx,%r15
    1295:	41 56                	push   %r14
    1297:	49 89 f6             	mov    %rsi,%r14
    129a:	41 55                	push   %r13
    129c:	41 89 fd             	mov    %edi,%r13d
    129f:	41 54                	push   %r12
    12a1:	4c 8d 25 40 2b 00 00 	lea    0x2b40(%rip),%r12        # 3de8 <__frame_dummy_init_array_entry>
    12a8:	55                   	push   %rbp
    12a9:	48 8d 2d 40 2b 00 00 	lea    0x2b40(%rip),%rbp        # 3df0 <__init_array_end>
    12b0:	53                   	push   %rbx
    12b1:	4c 29 e5             	sub    %r12,%rbp
    12b4:	48 83 ec 08          	sub    $0x8,%rsp
    12b8:	e8 43 fd ff ff       	callq  1000 <_init>
    12bd:	48 c1 fd 03          	sar    $0x3,%rbp
    12c1:	74 1b                	je     12de <__libc_csu_init+0x4e>
    12c3:	31 db                	xor    %ebx,%ebx
    12c5:	0f 1f 00             	nopl   (%rax)
    12c8:	4c 89 fa             	mov    %r15,%rdx
    12cb:	4c 89 f6             	mov    %r14,%rsi
    12ce:	44 89 ef             	mov    %r13d,%edi
    12d1:	41 ff 14 dc          	callq  *(%r12,%rbx,8)
    12d5:	48 83 c3 01          	add    $0x1,%rbx
    12d9:	48 39 dd             	cmp    %rbx,%rbp
    12dc:	75 ea                	jne    12c8 <__libc_csu_init+0x38>
    12de:	48 83 c4 08          	add    $0x8,%rsp
    12e2:	5b                   	pop    %rbx
    12e3:	5d                   	pop    %rbp
    12e4:	41 5c                	pop    %r12
    12e6:	41 5d                	pop    %r13
    12e8:	41 5e                	pop    %r14
    12ea:	41 5f                	pop    %r15
    12ec:	c3                   	retq   
    12ed:	0f 1f 00             	nopl   (%rax)

00000000000012f0 <__libc_csu_fini>:
    12f0:	c3                   	retq   

Disassembly of section .fini:

00000000000012f4 <_fini>:
    12f4:	48 83 ec 08          	sub    $0x8,%rsp
    12f8:	48 83 c4 08          	add    $0x8,%rsp
    12fc:	c3                   	retq   
